target datalayout = "e-m:e-p270:32:32-p271:32:32-p272:64:64-i64:64-i128:128-f80:128-n8:16:32:64-S128"
target triple = "x86_64-pc-linux-gnu"

%struct.node_record = type { ptr, ptr, i16, i64, i64, ptr, ptr, ptr, i16, ptr, i16, i16, i32, i32, i64, ptr, i16, i16, ptr, ptr, ptr, ptr, ptr, i64, i64, ptr, ptr, ptr, ptr, i32, ptr, ptr, i64, i64, i32, ptr, i64, ptr, i32, i16, ptr, ptr, i32, ptr, i32, i8, ptr, i32, i16, i16, ptr, i16, i64, i16, i64, ptr, i64, i32, i16, i64, i16, ptr, i16, i64, ptr, i64, i16, i32, i16, ptr, ptr, ptr, i16, i32, i16, i16, i32, ptr, i16, i32 }
%struct.agent_arg_t = type { i32, i16, i32, i8, ptr, ptr, i16, i32, ptr, i16 }

@.str.111 = private unnamed_addr constant [11 x i8] c"node_mgr.c\00", align 1
@__func__.push_reconfig_to_slurmd = private unnamed_addr constant [24 x i8] c"push_reconfig_to_slurmd\00", align 1
@.str.113 = private unnamed_addr constant [38 x i8] c"Spawning agent msg_type=%s version=%u\00", align 1

; Function Attrs: nounwind uwtable
define dso_local void @push_reconfig_to_slurmd() #0 {
  %1 = alloca [4 x ptr], align 16
  %2 = alloca ptr, align 8
  %3 = alloca ptr, align 8
  %4 = alloca i32, align 4
  %5 = alloca i32, align 4
  call void @llvm.lifetime.start.p0(i64 32, ptr %1) #10
  call void @llvm.memset.p0.i64(ptr align 16 %1, i8 0, i64 32, i1 false)
  call void @llvm.lifetime.start.p0(i64 8, ptr %2) #10
  call void @llvm.lifetime.start.p0(i64 8, ptr %3) #10
  call void @llvm.lifetime.start.p0(i64 4, ptr %4) #10
  %6 = call ptr @slurm_xcalloc(i64 noundef 1, i64 noundef 56, i1 noundef zeroext true, i1 noundef zeroext false, ptr noundef @.str.111, i32 noundef 4324, ptr noundef @__func__.push_reconfig_to_slurmd)
  %7 = getelementptr inbounds [4 x ptr], ptr %1, i64 0, i64 0
  store ptr %6, ptr %7, align 16
  %8 = getelementptr inbounds [4 x ptr], ptr %1, i64 0, i64 0
  %9 = load ptr, ptr %8, align 16
  %10 = getelementptr inbounds nuw %struct.agent_arg_t, ptr %9, i32 0, i32 7
  store i32 1004, ptr %10, align 4
  %11 = getelementptr inbounds [4 x ptr], ptr %1, i64 0, i64 0
  %12 = load ptr, ptr %11, align 16
  %13 = getelementptr inbounds nuw %struct.agent_arg_t, ptr %12, i32 0, i32 6
  store i16 11008, ptr %13, align 8
  %14 = call ptr @slurm_xcalloc(i64 noundef 1, i64 noundef 56, i1 noundef zeroext true, i1 noundef zeroext false, ptr noundef @.str.111, i32 noundef 4328, ptr noundef @__func__.push_reconfig_to_slurmd)
  %15 = getelementptr inbounds [4 x ptr], ptr %1, i64 0, i64 1
  store ptr %14, ptr %15, align 8
  %16 = getelementptr inbounds [4 x ptr], ptr %1, i64 0, i64 1
  %17 = load ptr, ptr %16, align 8
  %18 = getelementptr inbounds nuw %struct.agent_arg_t, ptr %17, i32 0, i32 7
  store i32 1004, ptr %18, align 4
  %19 = getelementptr inbounds [4 x ptr], ptr %1, i64 0, i64 1
  %20 = load ptr, ptr %19, align 8
  %21 = getelementptr inbounds nuw %struct.agent_arg_t, ptr %20, i32 0, i32 6
  store i16 10752, ptr %21, align 8
  %22 = call ptr @slurm_xcalloc(i64 noundef 1, i64 noundef 56, i1 noundef zeroext true, i1 noundef zeroext false, ptr noundef @.str.111, i32 noundef 4332, ptr noundef @__func__.push_reconfig_to_slurmd)
  %23 = getelementptr inbounds [4 x ptr], ptr %1, i64 0, i64 2
  store ptr %22, ptr %23, align 16
  %24 = getelementptr inbounds [4 x ptr], ptr %1, i64 0, i64 2
  %25 = load ptr, ptr %24, align 16
  %26 = getelementptr inbounds nuw %struct.agent_arg_t, ptr %25, i32 0, i32 7
  store i32 1004, ptr %26, align 4
  %27 = getelementptr inbounds [4 x ptr], ptr %1, i64 0, i64 2
  %28 = load ptr, ptr %27, align 16
  %29 = getelementptr inbounds nuw %struct.agent_arg_t, ptr %28, i32 0, i32 6
  store i16 10496, ptr %29, align 8
  %30 = call ptr @slurm_xcalloc(i64 noundef 1, i64 noundef 56, i1 noundef zeroext true, i1 noundef zeroext false, ptr noundef @.str.111, i32 noundef 4336, ptr noundef @__func__.push_reconfig_to_slurmd)
  %31 = getelementptr inbounds [4 x ptr], ptr %1, i64 0, i64 3
  store ptr %30, ptr %31, align 8
  %32 = getelementptr inbounds [4 x ptr], ptr %1, i64 0, i64 3
  %33 = load ptr, ptr %32, align 8
  %34 = getelementptr inbounds nuw %struct.agent_arg_t, ptr %33, i32 0, i32 7
  store i32 1004, ptr %34, align 4
  %35 = getelementptr inbounds [4 x ptr], ptr %1, i64 0, i64 3
  %36 = load ptr, ptr %35, align 8
  %37 = getelementptr inbounds nuw %struct.agent_arg_t, ptr %36, i32 0, i32 6
  store i16 10240, ptr %37, align 8
  call void @llvm.lifetime.start.p0(i64 4, ptr %5) #10
  store i32 0, ptr %5, align 4
  br label %38

38:                                               ; preds = %118, %0
  %39 = call ptr @next_node(ptr noundef %5)
  store ptr %39, ptr %3, align 8
  %40 = icmp ne ptr %39, null
  br i1 %40, label %42, label %41

41:                                               ; preds = %38
  call void @llvm.lifetime.end.p0(i64 4, ptr %5) #10
  br label %121

42:                                               ; preds = %38
  %43 = load ptr, ptr %3, align 8
  %44 = getelementptr inbounds nuw %struct.node_record, ptr %43, i32 0, i32 44
  %45 = load i32, ptr %44, align 8
  %46 = and i32 %45, 15
  %47 = icmp eq i32 %46, 6
  br i1 %47, label %48, label %49

48:                                               ; preds = %42
  br label %118

49:                                               ; preds = %42
  %50 = load ptr, ptr %3, align 8
  %51 = getelementptr inbounds nuw %struct.node_record, ptr %50, i32 0, i32 44
  %52 = load i32, ptr %51, align 8
  %53 = zext i32 %52 to i64
  %54 = and i64 %53, 128
  %55 = icmp ne i64 %54, 0
  br i1 %55, label %56, label %71

56:                                               ; preds = %49
  %57 = load ptr, ptr %3, align 8
  %58 = getelementptr inbounds nuw %struct.node_record, ptr %57, i32 0, i32 44
  %59 = load i32, ptr %58, align 8
  %60 = zext i32 %59 to i64
  %61 = and i64 %60, 4096
  %62 = icmp ne i64 %61, 0
  br i1 %62, label %70, label %63

63:                                               ; preds = %56
  %64 = load ptr, ptr %3, align 8
  %65 = getelementptr inbounds nuw %struct.node_record, ptr %64, i32 0, i32 44
  %66 = load i32, ptr %65, align 8
  %67 = zext i32 %66 to i64
  %68 = and i64 %67, 262144
  %69 = icmp ne i64 %68, 0
  br i1 %69, label %70, label %71

70:                                               ; preds = %63, %56
  br label %118

71:                                               ; preds = %63, %49
  store i32 0, ptr %4, align 4
  br label %72

72:                                               ; preds = %114, %71
  %73 = load i32, ptr %4, align 4
  %74 = icmp slt i32 %73, 4
  br i1 %74, label %75, label %117

75:                                               ; preds = %72
  %76 = load i32, ptr %4, align 4
  %77 = sext i32 %76 to i64
  %78 = getelementptr inbounds [4 x ptr], ptr %1, i64 0, i64 %77
  %79 = load ptr, ptr %78, align 8
  store ptr %79, ptr %2, align 8
  %80 = load ptr, ptr %3, align 8
  %81 = getelementptr inbounds nuw %struct.node_record, ptr %80, i32 0, i32 53
  %82 = load i16, ptr %81, align 8
  %83 = zext i16 %82 to i32
  %84 = load ptr, ptr %2, align 8
  %85 = getelementptr inbounds nuw %struct.agent_arg_t, ptr %84, i32 0, i32 6
  %86 = load i16, ptr %85, align 8
  %87 = zext i16 %86 to i32
  %88 = icmp slt i32 %83, %87
  br i1 %88, label %89, label %90

89:                                               ; preds = %75
  br label %114

90:                                               ; preds = %75
  %91 = load ptr, ptr %2, align 8
  %92 = getelementptr inbounds nuw %struct.agent_arg_t, ptr %91, i32 0, i32 5
  %93 = load ptr, ptr %92, align 8
  %94 = icmp ne ptr %93, null
  br i1 %94, label %102, label %95

95:                                               ; preds = %90
  %96 = call ptr @hostlist_create(ptr noundef null)
  %97 = load ptr, ptr %2, align 8
  %98 = getelementptr inbounds nuw %struct.agent_arg_t, ptr %97, i32 0, i32 5
  store ptr %96, ptr %98, align 8
  %99 = call ptr @new_config_response(i1 noundef zeroext true)
  %100 = load ptr, ptr %2, align 8
  %101 = getelementptr inbounds nuw %struct.agent_arg_t, ptr %100, i32 0, i32 8
  store ptr %99, ptr %101, align 8
  br label %102

102:                                              ; preds = %95, %90
  %103 = load ptr, ptr %2, align 8
  %104 = getelementptr inbounds nuw %struct.agent_arg_t, ptr %103, i32 0, i32 5
  %105 = load ptr, ptr %104, align 8
  %106 = load ptr, ptr %3, align 8
  %107 = getelementptr inbounds nuw %struct.node_record, ptr %106, i32 0, i32 37
  %108 = load ptr, ptr %107, align 8
  %109 = call i32 @hostlist_push_host(ptr noundef %105, ptr noundef %108)
  %110 = load ptr, ptr %2, align 8
  %111 = getelementptr inbounds nuw %struct.agent_arg_t, ptr %110, i32 0, i32 0
  %112 = load i32, ptr %111, align 8
  %113 = add i32 %112, 1
  store i32 %113, ptr %111, align 8
  br label %117

114:                                              ; preds = %89
  %115 = load i32, ptr %4, align 4
  %116 = add nsw i32 %115, 1
  store i32 %116, ptr %4, align 4
  br label %72, !llvm.loop !40

117:                                              ; preds = %102, %72
  br label %118

118:                                              ; preds = %117, %70, %48
  %119 = load i32, ptr %5, align 4
  %120 = add nsw i32 %119, 1
  store i32 %120, ptr %5, align 4
  br label %38, !llvm.loop !41

121:                                              ; preds = %41
  store i32 0, ptr %4, align 4
  br label %122

122:                                              ; preds = %160, %121
  %123 = load i32, ptr %4, align 4
  %124 = icmp slt i32 %123, 4
  br i1 %124, label %125, label %163

125:                                              ; preds = %122
  %126 = load i32, ptr %4, align 4
  %127 = sext i32 %126 to i64
  %128 = getelementptr inbounds [4 x ptr], ptr %1, i64 0, i64 %127
  %129 = load ptr, ptr %128, align 8
  store ptr %129, ptr %2, align 8
  %130 = load i32, ptr %4, align 4
  %131 = sext i32 %130 to i64
  %132 = getelementptr inbounds [4 x ptr], ptr %1, i64 0, i64 %131
  store ptr null, ptr %132, align 8
  %133 = load ptr, ptr %2, align 8
  %134 = getelementptr inbounds nuw %struct.agent_arg_t, ptr %133, i32 0, i32 0
  %135 = load i32, ptr %134, align 8
  %136 = icmp ne i32 %135, 0
  br i1 %136, label %138, label %137

137:                                              ; preds = %125
  call void @slurm_xfree(ptr noundef %2)
  br label %160

138:                                              ; preds = %125
  br label %139

139:                                              ; preds = %138
  br label %140

140:                                              ; preds = %139
  %141 = call i32 @get_log_level()
  %142 = icmp sge i32 %141, 5
  br i1 %142, label %143, label %153

143:                                              ; preds = %140
  %144 = load ptr, ptr %2, align 8
  %145 = getelementptr inbounds nuw %struct.agent_arg_t, ptr %144, i32 0, i32 7
  %146 = load i32, ptr %145, align 4
  %147 = trunc i32 %146 to i16
  %148 = call ptr @rpc_num2string(i16 noundef zeroext %147)
  %149 = load ptr, ptr %2, align 8
  %150 = getelementptr inbounds nuw %struct.agent_arg_t, ptr %149, i32 0, i32 6
  %151 = load i16, ptr %150, align 8
  %152 = zext i16 %151 to i32
  call void (i32, ptr, ...) @log_var(i32 noundef 5, ptr noundef @.str.113, ptr noundef %148, i32 noundef %152)
  br label %153

153:                                              ; preds = %143, %140
  br label %154

154:                                              ; preds = %153
  br label %155

155:                                              ; preds = %154
  br label %156

156:                                              ; preds = %155
  br label %157

157:                                              ; preds = %156
  %158 = load ptr, ptr %2, align 8
  call void @set_agent_arg_r_uid(ptr noundef %158, i32 noundef -1)
  %159 = load ptr, ptr %2, align 8
  call void @agent_queue_request(ptr noundef %159)
  br label %160

160:                                              ; preds = %157, %137
  %161 = load i32, ptr %4, align 4
  %162 = add nsw i32 %161, 1
  store i32 %162, ptr %4, align 4
  br label %122, !llvm.loop !42

163:                                              ; preds = %122
  call void @llvm.lifetime.end.p0(i64 4, ptr %4) #10
  call void @llvm.lifetime.end.p0(i64 8, ptr %3) #10
  call void @llvm.lifetime.end.p0(i64 8, ptr %2) #10
  call void @llvm.lifetime.end.p0(i64 32, ptr %1) #10
  ret void
}