; Function Attrs: nounwind uwtable
define dso_local void @push_reconfig_to_slurmd() local_unnamed_addr #0 {
  %1 = alloca [4 x ptr], align 16
  %2 = alloca ptr, align 8
  %3 = alloca i32, align 4
  call void @llvm.lifetime.start.p0(i64 32, ptr nonnull %1) #15
  call void @llvm.lifetime.start.p0(i64 8, ptr nonnull %2) #15
  %4 = tail call ptr @slurm_xcalloc(i64 noundef 1, i64 noundef 56, i1 noundef zeroext true, i1 noundef zeroext false, ptr noundef nonnull @.str.111, i32 noundef 4324, ptr noundef nonnull @__func__.push_reconfig_to_slurmd) #15
  store ptr %4, ptr %1, align 16
  %5 = getelementptr inbounds nuw i8, ptr %4, i64 36
  store i32 1004, ptr %5, align 4
  %6 = getelementptr inbounds nuw i8, ptr %4, i64 32
  store i16 11008, ptr %6, align 8
  %7 = tail call ptr @slurm_xcalloc(i64 noundef 1, i64 noundef 56, i1 noundef zeroext true, i1 noundef zeroext false, ptr noundef nonnull @.str.111, i32 noundef 4328, ptr noundef nonnull @__func__.push_reconfig_to_slurmd) #15
  %8 = getelementptr inbounds nuw i8, ptr %1, i64 8
  store ptr %7, ptr %8, align 8
  %9 = getelementptr inbounds nuw i8, ptr %7, i64 36
  store i32 1004, ptr %9, align 4
  %10 = getelementptr inbounds nuw i8, ptr %7, i64 32
  store i16 10752, ptr %10, align 8
  %11 = tail call ptr @slurm_xcalloc(i64 noundef 1, i64 noundef 56, i1 noundef zeroext true, i1 noundef zeroext false, ptr noundef nonnull @.str.111, i32 noundef 4332, ptr noundef nonnull @__func__.push_reconfig_to_slurmd) #15
  %12 = getelementptr inbounds nuw i8, ptr %1, i64 16
  store ptr %11, ptr %12, align 16
  %13 = getelementptr inbounds nuw i8, ptr %11, i64 36
  store i32 1004, ptr %13, align 4
  %14 = getelementptr inbounds nuw i8, ptr %11, i64 32
  store i16 10496, ptr %14, align 8
  %15 = tail call ptr @slurm_xcalloc(i64 noundef 1, i64 noundef 56, i1 noundef zeroext true, i1 noundef zeroext false, ptr noundef nonnull @.str.111, i32 noundef 4336, ptr noundef nonnull @__func__.push_reconfig_to_slurmd) #15
  %16 = getelementptr inbounds nuw i8, ptr %1, i64 24
  store ptr %15, ptr %16, align 8
  %17 = getelementptr inbounds nuw i8, ptr %15, i64 36
  store i32 1004, ptr %17, align 4
  %18 = getelementptr inbounds nuw i8, ptr %15, i64 32
  store i16 10240, ptr %18, align 8
  call void @llvm.lifetime.start.p0(i64 4, ptr nonnull %3) #15
  store i32 0, ptr %3, align 4
  %19 = call ptr @next_node(ptr noundef nonnull %3) #15
  %.not22 = icmp eq ptr %19, null
  br i1 %.not22, label %._crit_edge, label %.lr.ph

._crit_edge:                                      ; preds = %52, %0
  call void @llvm.lifetime.end.p0(i64 4, ptr nonnull %3) #15
  br label %56

.lr.ph:                                           ; preds = %0, %52
  %20 = phi ptr [ %55, %52 ], [ %19, %0 ]
  %21 = getelementptr inbounds nuw i8, ptr %20, i64 320
  %22 = load i32, ptr %21, align 8
  %23 = and i32 %22, 15
  %24 = icmp eq i32 %23, 6
  br i1 %24, label %52, label %25

25:                                               ; preds = %.lr.ph
  %26 = zext i32 %22 to i64
  %27 = and i64 %26, 128
  %.not14 = icmp eq i64 %27, 0
  %28 = and i64 %26, 266240
  %or.cond = icmp eq i64 %28, 0
  %or.cond18 = or i1 %.not14, %or.cond
  br i1 %or.cond18, label %.preheader, label %52

.preheader:                                       ; preds = %25
  %29 = getelementptr inbounds nuw i8, ptr %20, i64 368
  %30 = load i16, ptr %29, align 8
  br label %32

31:                                               ; preds = %32
  %indvars.iv.next = add nuw nsw i64 %indvars.iv, 1
  %exitcond.not = icmp eq i64 %indvars.iv.next, 4
  br i1 %exitcond.not, label %.loopexit, label %32, !llvm.loop !39

32:                                               ; preds = %.preheader, %31
  %indvars.iv = phi i64 [ 0, %.preheader ], [ %indvars.iv.next, %31 ]
  %33 = getelementptr inbounds nuw [4 x ptr], ptr %1, i64 0, i64 %indvars.iv
  %34 = load ptr, ptr %33, align 8
  %35 = getelementptr inbounds nuw i8, ptr %34, i64 32
  %36 = load i16, ptr %35, align 8
  %37 = icmp ult i16 %30, %36
  br i1 %37, label %31, label %38

38:                                               ; preds = %32
  store ptr %34, ptr %2, align 8
  %39 = getelementptr inbounds nuw i8, ptr %34, i64 24
  %40 = load ptr, ptr %39, align 8
  %.not17 = icmp eq ptr %40, null
  br i1 %.not17, label %41, label %45

41:                                               ; preds = %38
  %42 = call ptr @hostlist_create(ptr noundef null) #15
  store ptr %42, ptr %39, align 8
  %43 = call ptr @new_config_response(i1 noundef zeroext true) #15
  %44 = getelementptr inbounds nuw i8, ptr %34, i64 40
  store ptr %43, ptr %44, align 8
  %.pre = load ptr, ptr %39, align 8
  br label %45

45:                                               ; preds = %41, %38
  %46 = phi ptr [ %.pre, %41 ], [ %40, %38 ]
  %47 = getelementptr inbounds nuw i8, ptr %20, i64 272
  %48 = load ptr, ptr %47, align 8
  %49 = call i32 @hostlist_push_host(ptr noundef %46, ptr noundef %48) #15
  %50 = load i32, ptr %34, align 8
  %51 = add i32 %50, 1
  store i32 %51, ptr %34, align 8
  br label %52

.loopexit:                                        ; preds = %31
  store ptr %34, ptr %2, align 8
  br label %52

52:                                               ; preds = %.loopexit, %25, %45, %.lr.ph
  %53 = load i32, ptr %3, align 4
  %54 = add nsw i32 %53, 1
  store i32 %54, ptr %3, align 4
  %55 = call ptr @next_node(ptr noundef nonnull %3) #15
  %.not = icmp eq ptr %55, null
  br i1 %.not, label %._crit_edge, label %.lr.ph, !llvm.loop !40

56:                                               ; preds = %._crit_edge, %77
  %indvars.iv26 = phi i64 [ 0, %._crit_edge ], [ %indvars.iv.next27, %77 ]
  %57 = getelementptr inbounds nuw [4 x ptr], ptr %1, i64 0, i64 %indvars.iv26
  %58 = load ptr, ptr %57, align 8
  store ptr %58, ptr %2, align 8
  store ptr null, ptr %57, align 8
  %59 = load i32, ptr %58, align 8
  %.not13 = icmp eq i32 %59, 0
  br i1 %.not13, label %60, label %61

60:                                               ; preds = %56
  call void @slurm_xfree(ptr noundef nonnull %2) #15
  br label %77

61:                                               ; preds = %56
  %62 = call i32 @get_log_level() #15
  %63 = icmp sgt i32 %62, 4
  br i1 %63, label %64, label %74

64:                                               ; preds = %61
  %65 = load ptr, ptr %2, align 8
  %66 = getelementptr inbounds nuw i8, ptr %65, i64 36
  %67 = load i32, ptr %66, align 4
  %68 = trunc i32 %67 to i16
  %69 = call ptr @rpc_num2string(i16 noundef zeroext %68) #15
  %70 = load ptr, ptr %2, align 8
  %71 = getelementptr inbounds nuw i8, ptr %70, i64 32
  %72 = load i16, ptr %71, align 8
  %73 = zext i16 %72 to i32
  call void (i32, ptr, ...) @log_var(i32 noundef 5, ptr noundef nonnull @.str.113, ptr noundef %69, i32 noundef %73) #15
  br label %74

74:                                               ; preds = %64, %61
  %75 = load ptr, ptr %2, align 8
  call void @set_agent_arg_r_uid(ptr noundef %75, i32 noundef -1) #15
  %76 = load ptr, ptr %2, align 8
  call void @agent_queue_request(ptr noundef %76) #15
  br label %77

77:                                               ; preds = %74, %60
  %indvars.iv.next27 = add nuw nsw i64 %indvars.iv26, 1
  %exitcond29.not = icmp eq i64 %indvars.iv.next27, 4
  br i1 %exitcond29.not, label %78, label %56, !llvm.loop !41

78:                                               ; preds = %77
  call void @llvm.lifetime.end.p0(i64 8, ptr nonnull %2) #15
  call void @llvm.lifetime.end.p0(i64 32, ptr nonnull %1) #15
  ret void
}